; Function Attrs: mustprogress uwtable
define dso_local void @_ZN10Bookkeeper23record_bitfields_writesEPK8Variable(ptr noundef readonly captures(none) %0) local_unnamed_addr #6 align 2 {
  %2 = getelementptr inbounds nuw i8, ptr %0, i64 64
  %3 = load ptr, ptr %2, align 8, !tbaa !103
  %4 = tail call noundef zeroext i1 @_ZNK4Type13has_bitfieldsEv(ptr noundef nonnull align 8 dereferenceable(136) %3)
  br i1 %4, label %5, label %8

5:                                                ; preds = %1
  %6 = load i32, ptr @_ZN10Bookkeeper30lhs_bitfields_structs_vars_cntE, align 4, !tbaa !12
  %7 = add nsw i32 %6, 1
  store i32 %7, ptr @_ZN10Bookkeeper30lhs_bitfields_structs_vars_cntE, align 4, !tbaa !12
  br label %8

8:                                                ; preds = %5, %1
  %9 = getelementptr inbounds nuw i8, ptr %0, i64 83
  %10 = load i8, ptr %9, align 1, !tbaa !152, !range !66, !noundef !67
  %11 = trunc nuw i8 %10 to i1
  br i1 %11, label %12, label %15

12:                                               ; preds = %8
  %13 = load i32, ptr @_ZN10Bookkeeper16lhs_bitfield_cntE, align 4, !tbaa !12
  %14 = add nsw i32 %13, 1
  store i32 %14, ptr @_ZN10Bookkeeper16lhs_bitfield_cntE, align 4, !tbaa !12
  br label %15

15:                                               ; preds = %12, %8
  ret void
}